target datalayout = "e-m:e-p270:32:32-p271:32:32-p272:64:64-i64:64-i128:128-f80:128-n8:16:32:64-S128"
target triple = "x86_64-pc-linux-gnu"

%struct.hwloc_infos_s = type { ptr, i32, i32 }
%struct.hwloc_obj = type { i32, ptr, i32, ptr, i64, ptr, i32, i32, ptr, ptr, ptr, i32, ptr, ptr, i32, ptr, ptr, ptr, i32, i32, ptr, i32, ptr, i32, ptr, ptr, ptr, ptr, ptr, %struct.hwloc_infos_s, ptr, i64 }

; Function Attrs: inlinehint nounwind uwtable
define internal ptr @hwloc_get_next_child(ptr noundef %0, ptr noundef %1, ptr noundef %2) #4 {
  %4 = alloca ptr, align 8
  %5 = alloca ptr, align 8
  %6 = alloca ptr, align 8
  %7 = alloca ptr, align 8
  %8 = alloca i32, align 4
  store ptr %0, ptr %4, align 8, !tbaa !25
  store ptr %1, ptr %5, align 8, !tbaa !35
  store ptr %2, ptr %6, align 8, !tbaa !35
  call void @llvm.lifetime.start.p0(i64 8, ptr %7) #11
  call void @llvm.lifetime.start.p0(i64 4, ptr %8) #11
  store i32 0, ptr %8, align 4, !tbaa !11
  %9 = load ptr, ptr %6, align 8, !tbaa !35
  %10 = icmp ne ptr %9, null
  br i1 %10, label %11, label %37

11:                                               ; preds = %3
  %12 = load ptr, ptr %6, align 8, !tbaa !35
  %13 = getelementptr inbounds nuw %struct.hwloc_obj, ptr %12, i32 0, i32 0
  %14 = load i32, ptr %13, align 8, !tbaa !75
  %15 = icmp eq i32 %14, 19
  br i1 %15, label %16, label %17

16:                                               ; preds = %11
  store i32 3, ptr %8, align 4, !tbaa !11
  br label %33

17:                                               ; preds = %11
  %18 = load ptr, ptr %6, align 8, !tbaa !35
  %19 = getelementptr inbounds nuw %struct.hwloc_obj, ptr %18, i32 0, i32 0
  %20 = load i32, ptr %19, align 8, !tbaa !75
  %21 = call i32 @hwloc_obj_type_is_io(i32 noundef %20)
  %22 = icmp ne i32 %21, 0
  br i1 %22, label %23, label %24

23:                                               ; preds = %17
  store i32 2, ptr %8, align 4, !tbaa !11
  br label %32

24:                                               ; preds = %17
  %25 = load ptr, ptr %6, align 8, !tbaa !35
  %26 = getelementptr inbounds nuw %struct.hwloc_obj, ptr %25, i32 0, i32 0
  %27 = load i32, ptr %26, align 8, !tbaa !75
  %28 = call i32 @hwloc_obj_type_is_memory(i32 noundef %27)
  %29 = icmp ne i32 %28, 0
  br i1 %29, label %30, label %31

30:                                               ; preds = %24
  store i32 1, ptr %8, align 4, !tbaa !11
  br label %31

31:                                               ; preds = %30, %24
  br label %32

32:                                               ; preds = %31, %23
  br label %33

33:                                               ; preds = %32, %16
  %34 = load ptr, ptr %6, align 8, !tbaa !35
  %35 = getelementptr inbounds nuw %struct.hwloc_obj, ptr %34, i32 0, i32 12
  %36 = load ptr, ptr %35, align 8, !tbaa !98
  store ptr %36, ptr %7, align 8, !tbaa !35
  br label %41

37:                                               ; preds = %3
  %38 = load ptr, ptr %5, align 8, !tbaa !35
  %39 = getelementptr inbounds nuw %struct.hwloc_obj, ptr %38, i32 0, i32 16
  %40 = load ptr, ptr %39, align 8, !tbaa !97
  store ptr %40, ptr %7, align 8, !tbaa !35
  br label %41

41:                                               ; preds = %37, %33
  %42 = load ptr, ptr %7, align 8, !tbaa !35
  %43 = icmp ne ptr %42, null
  br i1 %43, label %51, label %44

44:                                               ; preds = %41
  %45 = load i32, ptr %8, align 4, !tbaa !11
  %46 = icmp eq i32 %45, 0
  br i1 %46, label %47, label %51

47:                                               ; preds = %44
  %48 = load ptr, ptr %5, align 8, !tbaa !35
  %49 = getelementptr inbounds nuw %struct.hwloc_obj, ptr %48, i32 0, i32 20
  %50 = load ptr, ptr %49, align 8, !tbaa !100
  store ptr %50, ptr %7, align 8, !tbaa !35
  store i32 1, ptr %8, align 4, !tbaa !11
  br label %51

51:                                               ; preds = %47, %44, %41
  %52 = load ptr, ptr %7, align 8, !tbaa !35
  %53 = icmp ne ptr %52, null
  br i1 %53, label %61, label %54

54:                                               ; preds = %51
  %55 = load i32, ptr %8, align 4, !tbaa !11
  %56 = icmp eq i32 %55, 1
  br i1 %56, label %57, label %61

57:                                               ; preds = %54
  %58 = load ptr, ptr %5, align 8, !tbaa !35
  %59 = getelementptr inbounds nuw %struct.hwloc_obj, ptr %58, i32 0, i32 22
  %60 = load ptr, ptr %59, align 8, !tbaa !102
  store ptr %60, ptr %7, align 8, !tbaa !35
  store i32 2, ptr %8, align 4, !tbaa !11
  br label %61

61:                                               ; preds = %57, %54, %51
  %62 = load ptr, ptr %7, align 8, !tbaa !35
  %63 = icmp ne ptr %62, null
  br i1 %63, label %71, label %64

64:                                               ; preds = %61
  %65 = load i32, ptr %8, align 4, !tbaa !11
  %66 = icmp eq i32 %65, 2
  br i1 %66, label %67, label %71

67:                                               ; preds = %64
  %68 = load ptr, ptr %5, align 8, !tbaa !35
  %69 = getelementptr inbounds nuw %struct.hwloc_obj, ptr %68, i32 0, i32 24
  %70 = load ptr, ptr %69, align 8, !tbaa !104
  store ptr %70, ptr %7, align 8, !tbaa !35
  store i32 3, ptr %8, align 4, !tbaa !11
  br label %71

71:                                               ; preds = %67, %64, %61
  %72 = load ptr, ptr %7, align 8, !tbaa !35
  call void @llvm.lifetime.end.p0(i64 4, ptr %8) #11
  call void @llvm.lifetime.end.p0(i64 8, ptr %7) #11
  ret ptr %72
}

; Function Attrs: nounwind uwtable
define internal void @apply_recursive(ptr noundef %0, ptr noundef %1) #0 {
  %3 = alloca ptr, align 8
  %4 = alloca ptr, align 8
  %5 = alloca ptr, align 8
  store ptr %0, ptr %3, align 8, !tbaa !25
  store ptr %1, ptr %4, align 8, !tbaa !35
  call void @llvm.lifetime.start.p0(i64 8, ptr %5) #11
  store ptr null, ptr %5, align 8, !tbaa !35
  br label %6

6:                                                ; preds = %12, %2
  %7 = load ptr, ptr %3, align 8, !tbaa !25
  %8 = load ptr, ptr %4, align 8, !tbaa !35
  %9 = load ptr, ptr %5, align 8, !tbaa !35
  %10 = call ptr @hwloc_get_next_child(ptr noundef %7, ptr noundef %8, ptr noundef %9)
  store ptr %10, ptr %5, align 8, !tbaa !35
  %11 = icmp ne ptr %10, null
  br i1 %11, label %12, label %15

12:                                               ; preds = %6
  %13 = load ptr, ptr %3, align 8, !tbaa !25
  %14 = load ptr, ptr %5, align 8, !tbaa !35
  call void @apply_recursive(ptr noundef %13, ptr noundef %14)
  br label %6, !llvm.loop !82

15:                                               ; preds = %6
  %16 = load ptr, ptr %3, align 8, !tbaa !25
  %17 = load ptr, ptr %4, align 8, !tbaa !35
  call void @apply(ptr noundef %16, ptr noundef %17)
  call void @llvm.lifetime.end.p0(i64 8, ptr %5) #11
  ret void
}