; Function Attrs: nounwind uwtable
define internal fastcc void @apply_recursive(ptr noundef %0, ptr noundef %1) unnamed_addr #13 {
  %3 = getelementptr inbounds nuw i8, ptr %1, i64 120
  %4 = getelementptr inbounds nuw i8, ptr %1, i64 144
  %5 = getelementptr inbounds nuw i8, ptr %1, i64 160
  %6 = getelementptr inbounds nuw i8, ptr %1, i64 176
  br label %7

7:                                                ; preds = %33, %2
  %.0 = phi ptr [ null, %2 ], [ %.323.i, %33 ]
  %.not.i = icmp eq ptr %.0, null
  br i1 %.not.i, label %18, label %8

8:                                                ; preds = %7
  %9 = load i32, ptr %.0, align 8, !tbaa !66
  %10 = icmp eq i32 %9, 19
  br i1 %10, label %16, label %11

11:                                               ; preds = %8
  %12 = tail call i32 @hwloc_obj_type_is_io(i32 noundef %9) #27
  %.not26.i = icmp eq i32 %12, 0
  br i1 %.not26.i, label %13, label %16

13:                                               ; preds = %11
  %14 = load i32, ptr %.0, align 8, !tbaa !66
  %15 = tail call i32 @hwloc_obj_type_is_memory(i32 noundef %14) #27
  %.not27.i = icmp ne i32 %15, 0
  %spec.select.i = zext i1 %.not27.i to i32
  br label %16

16:                                               ; preds = %13, %11, %8
  %.0.i = phi i32 [ 3, %8 ], [ 2, %11 ], [ %spec.select.i, %13 ]
  %17 = getelementptr inbounds nuw i8, ptr %.0, i64 88
  br label %18

18:                                               ; preds = %7, %16
  %.020.in.i = phi ptr [ %17, %16 ], [ %3, %7 ]
  %.1.i = phi i32 [ %.0.i, %16 ], [ 0, %7 ]
  %.020.i = load ptr, ptr %.020.in.i, align 8, !tbaa !33
  %19 = icmp eq ptr %.020.i, null
  %20 = icmp eq i32 %.1.i, 0
  %or.cond.i = and i1 %20, %19
  br i1 %or.cond.i, label %21, label %23

21:                                               ; preds = %18
  %22 = load ptr, ptr %4, align 8, !tbaa !73
  br label %23

23:                                               ; preds = %21, %18
  %.121.i = phi ptr [ %22, %21 ], [ %.020.i, %18 ]
  %.2.i = phi i32 [ 1, %21 ], [ %.1.i, %18 ]
  %24 = icmp eq ptr %.121.i, null
  %25 = icmp eq i32 %.2.i, 1
  %or.cond3.i = and i1 %24, %25
  br i1 %or.cond3.i, label %26, label %28

26:                                               ; preds = %23
  %27 = load ptr, ptr %5, align 8, !tbaa !74
  br label %28

28:                                               ; preds = %26, %23
  %.222.i = phi ptr [ %27, %26 ], [ %.121.i, %23 ]
  %.3.i = phi i32 [ 2, %26 ], [ %.2.i, %23 ]
  %29 = icmp eq ptr %.222.i, null
  %30 = icmp eq i32 %.3.i, 2
  %or.cond5.i = and i1 %29, %30
  br i1 %or.cond5.i, label %31, label %hwloc_get_next_child.exit

31:                                               ; preds = %28
  %32 = load ptr, ptr %6, align 8, !tbaa !75
  br label %hwloc_get_next_child.exit

hwloc_get_next_child.exit:                        ; preds = %28, %31
  %.323.i = phi ptr [ %32, %31 ], [ %.222.i, %28 ]
  %.not = icmp eq ptr %.323.i, null
  br i1 %.not, label %34, label %33

33:                                               ; preds = %hwloc_get_next_child.exit
  tail call fastcc void @apply_recursive(ptr noundef %0, ptr noundef nonnull %.323.i)
  br label %7, !llvm.loop !76

34:                                               ; preds = %hwloc_get_next_child.exit
  tail call fastcc void @apply(ptr noundef %0, ptr noundef %1)
  ret void
}